; ModuleID = '12/1046.c'
source_filename = "12/1046.c"
target datalayout = "e-m:e-p270:32:32-p271:32:32-p272:64:64-i64:64-f80:128-n8:16:32:64-S128"
target triple = "x86_64-pc-linux-gnu"

@.str = private unnamed_addr constant [3 x i8] c"%d\00", align 1
@.str.1 = private unnamed_addr constant [4 x i8] c"%d\0A\00", align 1

; Function Attrs: noinline nounwind uwtable
define dso_local i32 @main(i32 %0, i8** %1) #0 {
  %3 = alloca i32, align 4
  %4 = alloca i32, align 4
  %5 = alloca i8**, align 8
  %6 = alloca i32, align 4
  %7 = alloca i32, align 4
  %8 = alloca i32, align 4
  %9 = alloca i32, align 4
  %10 = alloca i32, align 4
  %11 = alloca i32, align 4
  %12 = alloca [15 x i32], align 16
  store i32 0, i32* %3, align 4
  store i32 %0, i32* %4, align 4
  store i8** %1, i8*** %5, align 8
  store i32 1, i32* %6, align 4
  store i32 0, i32* %7, align 4
  store i32 0, i32* %10, align 4
  store i32 0, i32* %11, align 4
  br label %13

13:                                               ; preds = %64, %2
  %14 = load i32, i32* %6, align 4
  %15 = icmp ne i32 %14, -1
  br i1 %15, label %16, label %65

16:                                               ; preds = %13
  %17 = call i32 (i8*, ...) @__isoc99_scanf(i8* getelementptr inbounds ([3 x i8], [3 x i8]* @.str, i64 0, i64 0), i32* %6)
  %18 = load i32, i32* %6, align 4
  %19 = icmp ne i32 %18, 0
  br i1 %19, label %20, label %29

20:                                               ; preds = %16
  %21 = load i32, i32* %6, align 4
  %22 = load i32, i32* %7, align 4
  %23 = sext i32 %22 to i64
  %24 = getelementptr inbounds [15 x i32], [15 x i32]* %12, i64 0, i64 %23
  store i32 %21, i32* %24, align 4
  %25 = load i32, i32* %10, align 4
  %26 = add nsw i32 %25, 1
  store i32 %26, i32* %10, align 4
  %27 = load i32, i32* %7, align 4
  %28 = add nsw i32 %27, 1
  store i32 %28, i32* %7, align 4
  br label %64

29:                                               ; preds = %16
  store i32 0, i32* %8, align 4
  br label %30

30:                                               ; preds = %58, %29
  %31 = load i32, i32* %8, align 4
  %32 = load i32, i32* %10, align 4
  %33 = icmp slt i32 %31, %32
  br i1 %33, label %34, label %61

34:                                               ; preds = %30
  store i32 0, i32* %9, align 4
  br label %35

35:                                               ; preds = %54, %34
  %36 = load i32, i32* %9, align 4
  %37 = load i32, i32* %10, align 4
  %38 = icmp slt i32 %36, %37
  br i1 %38, label %39, label %57

39:                                               ; preds = %35
  %40 = load i32, i32* %8, align 4
  %41 = sext i32 %40 to i64
  %42 = getelementptr inbounds [15 x i32], [15 x i32]* %12, i64 0, i64 %41
  %43 = load i32, i32* %42, align 4
  %44 = load i32, i32* %9, align 4
  %45 = sext i32 %44 to i64
  %46 = getelementptr inbounds [15 x i32], [15 x i32]* %12, i64 0, i64 %45
  %47 = load i32, i32* %46, align 4
  %48 = mul nsw i32 2, %47
  %49 = icmp eq i32 %43, %48
  br i1 %49, label %50, label %53

50:                                               ; preds = %39
  %51 = load i32, i32* %11, align 4
  %52 = add nsw i32 %51, 1
  store i32 %52, i32* %11, align 4
  br label %53

53:                                               ; preds = %50, %39
  br label %54

54:                                               ; preds = %53
  %55 = load i32, i32* %9, align 4
  %56 = add nsw i32 %55, 1
  store i32 %56, i32* %9, align 4
  br label %35

57:                                               ; preds = %35
  br label %58

58:                                               ; preds = %57
  %59 = load i32, i32* %8, align 4
  %60 = add nsw i32 %59, 1
  store i32 %60, i32* %8, align 4
  br label %30

61:                                               ; preds = %30
  %62 = load i32, i32* %11, align 4
  %63 = call i32 (i8*, ...) @printf(i8* getelementptr inbounds ([4 x i8], [4 x i8]* @.str.1, i64 0, i64 0), i32 %62)
  store i32 0, i32* %7, align 4
  store i32 0, i32* %10, align 4
  store i32 0, i32* %11, align 4
  br label %64

64:                                               ; preds = %61, %20
  br label %13

65:                                               ; preds = %13
  ret i32 0
}

declare dso_local i32 @__isoc99_scanf(i8*, ...) #1

declare dso_local i32 @printf(i8*, ...) #1


!llvm.module.flags = !{!0}
!llvm.ident = !{!1}

!0 = !{i32 1, !"wchar_size", i32 4}
!1 = !{!"clang version 10.0.0-4ubuntu1 "}
